; Function Attrs: mustprogress uwtable
define noundef zeroext i1 @_ZNK5arrow7compute9InputType7MatchesERKNS_8DataTypeE(ptr nocapture noundef nonnull readonly align 8 dereferenceable(40) %this, ptr noundef nonnull align 8 dereferenceable(72) %type) local_unnamed_addr #0 align 2 {
entry:
  %0 = load i32, ptr %this, align 8
  switch i32 %0, label %return [
    i32 1, label %sw.bb
    i32 2, label %sw.bb3
  ]

sw.bb:                                            ; preds = %entry
  %type_ = getelementptr inbounds i8, ptr %this, i64 8
  %1 = load ptr, ptr %type_, align 8
  %call2 = tail call noundef zeroext i1 @_ZNK5arrow8DataType6EqualsERKS0_b(ptr noundef nonnull align 8 dereferenceable(72) %1, ptr noundef nonnull align 8 dereferenceable(72) %type, i1 noundef zeroext false)
  br label %return

sw.bb3:                                           ; preds = %entry
  %type_matcher_ = getelementptr inbounds i8, ptr %this, i64 24
  %2 = load ptr, ptr %type_matcher_, align 8
  %vtable = load ptr, ptr %2, align 8
  %vfn = getelementptr inbounds i8, ptr %vtable, i64 16
  %3 = load ptr, ptr %vfn, align 8
  %call5 = tail call noundef zeroext i1 %3(ptr noundef nonnull align 8 dereferenceable(8) %2, ptr noundef nonnull align 8 dereferenceable(72) %type)
  br label %return

return:                                           ; preds = %entry, %sw.bb3, %sw.bb
  %retval.0 = phi i1 [ %call5, %sw.bb3 ], [ %call2, %sw.bb ], [ true, %entry ]
  ret i1 %retval.0
}